; Function Attrs: mustprogress nounwind uwtable
define dso_local void @_ZN4node4quic7Session11Application22CreateStreamDataPacketEv(ptr noalias sret(%"class.node::BaseObjectPtrImpl.114") align 8 %agg.result, ptr nocapture noundef nonnull readonly align 8 dereferenceable(16) %this) local_unnamed_addr #3 align 2 {
entry:
  %session_.i = getelementptr inbounds i8, ptr %this, i64 8
  %0 = load ptr, ptr %session_.i, align 8
  %realm_.i.i = getelementptr inbounds i8, ptr %0, i64 16
  %1 = load ptr, ptr %realm_.i.i, align 8
  %env_.i.i.i = getelementptr inbounds i8, ptr %1, i64 176
  %2 = load ptr, ptr %env_.i.i.i, align 8
  %endpoint_ = getelementptr inbounds i8, ptr %0, i64 1776
  %3 = load ptr, ptr %endpoint_, align 8
  %4 = icmp eq ptr %3, null
  %add.ptr = getelementptr inbounds i8, ptr %3, i64 56
  %spec.select = select i1 %4, ptr null, ptr %add.ptr
  %remote_address_ = getelementptr inbounds i8, ptr %0, i64 2280
  %call5 = tail call noundef ptr @_ZNK4node4quic7SessioncvP11ngtcp2_connEv(ptr noundef nonnull align 8 dereferenceable(2616) %0) #18
  %call6 = tail call i64 @ngtcp2_conn_get_max_udp_payload_size(ptr noundef %call5) #18
  tail call void @_ZN4node4quic6Packet6CreateEPNS_11EnvironmentEPNS1_8ListenerERKNS_13SocketAddressEmPKc(ptr sret(%"class.node::BaseObjectPtrImpl.114") align 8 %agg.result, ptr noundef %2, ptr noundef %spec.select, ptr noundef nonnull align 8 dereferenceable(136) %remote_address_, i64 noundef %call6, ptr noundef nonnull @.str.2) #18
  ret void
}